; Function Attrs: mustprogress uwtable
define void @_ZN12ByteViewText17updateContextMenuEv(ptr nocapture noundef nonnull readonly align 8 dereferenceable(328) %0) local_unnamed_addr #0 align 2 {
  %2 = getelementptr inbounds i8, ptr %0, i64 264
  %3 = load ptr, ptr %2, align 8
  %4 = load i32, ptr getelementptr inbounds (%struct.recent_settings_tag, ptr @recent, i64 0, i32 17), align 4
  %5 = icmp ne i32 %4, 0
  tail call void @_ZN7QAction10setCheckedEb(ptr noundef nonnull align 8 dereferenceable(16) %3, i1 noundef zeroext %5)
  %6 = load i32, ptr getelementptr inbounds (%struct.recent_settings_tag, ptr @recent, i64 0, i32 14), align 8
  %7 = icmp ult i32 %6, 4
  br i1 %7, label %switch.lookup, label %11

switch.lookup:                                    ; preds = %1
  %8 = zext nneg i32 %6 to i64
  %switch.gep = getelementptr inbounds [4 x i64], ptr @switch.table._ZN12ByteViewText22updateByteViewSettingsEv, i64 0, i64 %8
  %switch.load = load i64, ptr %switch.gep, align 8
  %9 = getelementptr inbounds i8, ptr %0, i64 %switch.load
  %10 = load ptr, ptr %9, align 8
  tail call void @_ZN7QAction10setCheckedEb(ptr noundef nonnull align 8 dereferenceable(16) %10, i1 noundef zeroext true)
  br label %11

11:                                               ; preds = %1, %switch.lookup
  %12 = load i32, ptr getelementptr inbounds (%struct.recent_settings_tag, ptr @recent, i64 0, i32 15), align 4
  %13 = icmp ult i32 %12, 3
  br i1 %13, label %switch.lookup6, label %19

switch.lookup6:                                   ; preds = %11
  %14 = shl nuw nsw i32 %12, 3
  %15 = zext nneg i32 %14 to i64
  %16 = getelementptr i8, ptr %0, i64 %15
  %17 = getelementptr i8, ptr %16, i64 304
  %18 = load ptr, ptr %17, align 8
  tail call void @_ZN7QAction10setCheckedEb(ptr noundef nonnull align 8 dereferenceable(16) %18, i1 noundef zeroext true)
  br label %19

19:                                               ; preds = %11, %switch.lookup6
  ret void
}